; Function Attrs: nounwind uwtable
define dso_local void @pull_up_sublinks(ptr noundef %0) local_unnamed_addr #0 {
  %2 = alloca ptr, align 8
  call void @llvm.lifetime.start.p0(i64 8, ptr nonnull %2) #7
  %3 = getelementptr inbounds nuw i8, ptr %0, i64 8
  %4 = load ptr, ptr %3, align 8
  %5 = getelementptr inbounds nuw i8, ptr %4, i64 80
  %6 = load ptr, ptr %5, align 8
  %7 = call fastcc ptr @pull_up_sublinks_jointree_recurse(ptr noundef %0, ptr noundef %6, ptr noundef %2)
  %8 = load i32, ptr %7, align 4
  %9 = icmp eq i32 %8, 65
  br i1 %9, label %13, label %10

10:                                               ; preds = %1
  %11 = tail call ptr @list_make1_impl(i32 noundef 1, ptr nonnull %7) #7
  %12 = tail call ptr @makeFromExpr(ptr noundef %11, ptr noundef null) #7
  br label %13

13:                                               ; preds = %1, %10
  %.sink = phi ptr [ %12, %10 ], [ %7, %1 ]
  %14 = load ptr, ptr %3, align 8
  %15 = getelementptr inbounds nuw i8, ptr %14, i64 80
  store ptr %.sink, ptr %15, align 8
  call void @llvm.lifetime.end.p0(i64 8, ptr nonnull %2) #7
  ret void
}